; Function Attrs: mustprogress nofree norecurse nosync nounwind willreturn memory(argmem: read) uwtable
define ptr @ossl_quic_reactor_get0_notifier(ptr noundef readonly captures(ret: address, provenance) %0) local_unnamed_addr #4 {
  %2 = getelementptr inbounds nuw i8, ptr %0, i64 88
  %3 = load i8, ptr %2, align 8
  %4 = and i8 %3, 16
  %.not = icmp eq i8 %4, 0
  %5 = getelementptr inbounds nuw i8, ptr %0, i64 64
  %6 = select i1 %.not, ptr null, ptr %5
  ret ptr %6
}